; Function Attrs: mustprogress nofree norecurse nosync nounwind willreturn memory(argmem: write) uwtable
define hidden range(i32 0, 2) i32 @mpd_qsetemax(ptr noundef writeonly captures(none) %0, i64 noundef %1) local_unnamed_addr #5 {
  %or.cond = icmp ugt i64 %1, 999999999999999999
  br i1 %or.cond, label %5, label %3

3:                                                ; preds = %2
  %4 = getelementptr inbounds nuw i8, ptr %0, i64 8
  store i64 %1, ptr %4, align 8, !tbaa !13
  br label %5

5:                                                ; preds = %2, %3
  %.0 = phi i32 [ 1, %3 ], [ 0, %2 ]
  ret i32 %.0
}